target datalayout = "e-m:e-p270:32:32-p271:32:32-p272:64:64-i64:64-i128:128-f80:128-n8:16:32:64-S128"
target triple = "x86_64-pc-linux-gnu"

%struct.FFIIRFilterCoeffs = type { i32, float, ptr, ptr }

@.str.3 = private unnamed_addr constant [75 x i8] c"Biquad filter currently only supports high-pass and low-pass filter modes\0A\00", align 1
@.str.4 = private unnamed_addr constant [36 x i8] c"Biquad filter must have order of 2\0A\00", align 1

; Function Attrs: cold nounwind optsize uwtable
define internal i32 @biquad_init_coeffs(ptr noundef %0, ptr noundef %1, i32 noundef %2, i32 noundef %3, float noundef %4, float noundef %5) #0 {
  %7 = alloca i32, align 4
  %8 = alloca ptr, align 8
  %9 = alloca ptr, align 8
  %10 = alloca i32, align 4
  %11 = alloca i32, align 4
  %12 = alloca float, align 4
  %13 = alloca float, align 4
  %14 = alloca double, align 8
  %15 = alloca double, align 8
  %16 = alloca double, align 8
  %17 = alloca double, align 8
  %18 = alloca double, align 8
  %19 = alloca i32, align 4
  store ptr %0, ptr %8, align 8, !tbaa !4
  store ptr %1, ptr %9, align 8, !tbaa !12
  store i32 %2, ptr %10, align 4, !tbaa !8
  store i32 %3, ptr %11, align 4, !tbaa !8
  store float %4, ptr %12, align 4, !tbaa !10
  store float %5, ptr %13, align 4, !tbaa !10
  call void @llvm.lifetime.start.p0(i64 8, ptr %14) #5
  call void @llvm.lifetime.start.p0(i64 8, ptr %15) #5
  call void @llvm.lifetime.start.p0(i64 8, ptr %16) #5
  call void @llvm.lifetime.start.p0(i64 8, ptr %17) #5
  call void @llvm.lifetime.start.p0(i64 8, ptr %18) #5
  %20 = load i32, ptr %10, align 4, !tbaa !8
  %21 = icmp ne i32 %20, 1
  br i1 %21, label %22, label %27

22:                                               ; preds = %6
  %23 = load i32, ptr %10, align 4, !tbaa !8
  %24 = icmp ne i32 %23, 0
  br i1 %24, label %25, label %27

25:                                               ; preds = %22
  %26 = load ptr, ptr %8, align 8, !tbaa !4
  call void (ptr, i32, ptr, ...) @av_log(ptr noundef %26, i32 noundef 16, ptr noundef @.str.3)
  store i32 -1, ptr %7, align 4
  store i32 1, ptr %19, align 4
  br label %129

27:                                               ; preds = %22, %6
  %28 = load i32, ptr %11, align 4, !tbaa !8
  %29 = icmp ne i32 %28, 2
  br i1 %29, label %30, label %32

30:                                               ; preds = %27
  %31 = load ptr, ptr %8, align 8, !tbaa !4
  call void (ptr, i32, ptr, ...) @av_log(ptr noundef %31, i32 noundef 16, ptr noundef @.str.4)
  store i32 -1, ptr %7, align 4
  store i32 1, ptr %19, align 4
  br label %129

32:                                               ; preds = %27
  %33 = load float, ptr %12, align 4, !tbaa !10
  %34 = fpext nsz float %33 to double
  %35 = fmul nsz double 0x400921FB54442D18, %34
  %36 = call nsz double @llvm.cos.f64(double %35)
  store double %36, ptr %14, align 8, !tbaa !20
  %37 = load float, ptr %12, align 4, !tbaa !10
  %38 = fpext nsz float %37 to double
  %39 = fmul nsz double 0x400921FB54442D18, %38
  %40 = call nsz double @llvm.sin.f64(double %39)
  store double %40, ptr %15, align 8, !tbaa !20
  %41 = load double, ptr %15, align 8, !tbaa !20
  %42 = fdiv nsz double %41, 2.000000e+00
  %43 = fadd nsz double 1.000000e+00, %42
  store double %43, ptr %16, align 8, !tbaa !20
  %44 = load i32, ptr %10, align 4, !tbaa !8
  %45 = icmp eq i32 %44, 1
  br i1 %45, label %46, label %65

46:                                               ; preds = %32
  %47 = load double, ptr %14, align 8, !tbaa !20
  %48 = fadd nsz double 1.000000e+00, %47
  %49 = fdiv nsz double %48, 2.000000e+00
  %50 = load double, ptr %16, align 8, !tbaa !20
  %51 = fdiv nsz double %49, %50
  %52 = fptrunc nsz double %51 to float
  %53 = load ptr, ptr %9, align 8, !tbaa !12
  %54 = getelementptr inbounds nuw %struct.FFIIRFilterCoeffs, ptr %53, i32 0, i32 1
  store float %52, ptr %54, align 4, !tbaa !27
  %55 = load double, ptr %14, align 8, !tbaa !20
  %56 = fadd nsz double 1.000000e+00, %55
  %57 = fdiv nsz double %56, 2.000000e+00
  %58 = load double, ptr %16, align 8, !tbaa !20
  %59 = fdiv nsz double %57, %58
  store double %59, ptr %17, align 8, !tbaa !20
  %60 = load double, ptr %14, align 8, !tbaa !20
  %61 = fadd nsz double 1.000000e+00, %60
  %62 = fneg nsz double %61
  %63 = load double, ptr %16, align 8, !tbaa !20
  %64 = fdiv nsz double %62, %63
  store double %64, ptr %18, align 8, !tbaa !20
  br label %83

65:                                               ; preds = %32
  %66 = load double, ptr %14, align 8, !tbaa !20
  %67 = fsub nsz double 1.000000e+00, %66
  %68 = fdiv nsz double %67, 2.000000e+00
  %69 = load double, ptr %16, align 8, !tbaa !20
  %70 = fdiv nsz double %68, %69
  %71 = fptrunc nsz double %70 to float
  %72 = load ptr, ptr %9, align 8, !tbaa !12
  %73 = getelementptr inbounds nuw %struct.FFIIRFilterCoeffs, ptr %72, i32 0, i32 1
  store float %71, ptr %73, align 4, !tbaa !27
  %74 = load double, ptr %14, align 8, !tbaa !20
  %75 = fsub nsz double 1.000000e+00, %74
  %76 = fdiv nsz double %75, 2.000000e+00
  %77 = load double, ptr %16, align 8, !tbaa !20
  %78 = fdiv nsz double %76, %77
  store double %78, ptr %17, align 8, !tbaa !20
  %79 = load double, ptr %14, align 8, !tbaa !20
  %80 = fsub nsz double 1.000000e+00, %79
  %81 = load double, ptr %16, align 8, !tbaa !20
  %82 = fdiv nsz double %80, %81
  store double %82, ptr %18, align 8, !tbaa !20
  br label %83

83:                                               ; preds = %65, %46
  %84 = load double, ptr %15, align 8, !tbaa !20
  %85 = fdiv nsz double %84, 2.000000e+00
  %86 = fadd nsz double -1.000000e+00, %85
  %87 = load double, ptr %16, align 8, !tbaa !20
  %88 = fdiv nsz double %86, %87
  %89 = fptrunc nsz double %88 to float
  %90 = load ptr, ptr %9, align 8, !tbaa !12
  %91 = getelementptr inbounds nuw %struct.FFIIRFilterCoeffs, ptr %90, i32 0, i32 3
  %92 = load ptr, ptr %91, align 8, !tbaa !18
  %93 = getelementptr inbounds float, ptr %92, i64 0
  store float %89, ptr %93, align 4, !tbaa !10
  %94 = load double, ptr %14, align 8, !tbaa !20
  %95 = fmul nsz double 2.000000e+00, %94
  %96 = load double, ptr %16, align 8, !tbaa !20
  %97 = fdiv nsz double %95, %96
  %98 = fptrunc nsz double %97 to float
  %99 = load ptr, ptr %9, align 8, !tbaa !12
  %100 = getelementptr inbounds nuw %struct.FFIIRFilterCoeffs, ptr %99, i32 0, i32 3
  %101 = load ptr, ptr %100, align 8, !tbaa !18
  %102 = getelementptr inbounds float, ptr %101, i64 1
  store float %98, ptr %102, align 4, !tbaa !10
  %103 = load double, ptr %17, align 8, !tbaa !20
  %104 = load ptr, ptr %9, align 8, !tbaa !12
  %105 = getelementptr inbounds nuw %struct.FFIIRFilterCoeffs, ptr %104, i32 0, i32 1
  %106 = load float, ptr %105, align 4, !tbaa !27
  %107 = fpext nsz float %106 to double
  %108 = fdiv nsz double %103, %107
  %109 = fptrunc nsz double %108 to float
  %110 = call i64 @llvm.lrint.i64.f32(float %109)
  %111 = trunc i64 %110 to i32
  %112 = load ptr, ptr %9, align 8, !tbaa !12
  %113 = getelementptr inbounds nuw %struct.FFIIRFilterCoeffs, ptr %112, i32 0, i32 2
  %114 = load ptr, ptr %113, align 8, !tbaa !14
  %115 = getelementptr inbounds i32, ptr %114, i64 0
  store i32 %111, ptr %115, align 4, !tbaa !8
  %116 = load double, ptr %18, align 8, !tbaa !20
  %117 = load ptr, ptr %9, align 8, !tbaa !12
  %118 = getelementptr inbounds nuw %struct.FFIIRFilterCoeffs, ptr %117, i32 0, i32 1
  %119 = load float, ptr %118, align 4, !tbaa !27
  %120 = fpext nsz float %119 to double
  %121 = fdiv nsz double %116, %120
  %122 = fptrunc nsz double %121 to float
  %123 = call i64 @llvm.lrint.i64.f32(float %122)
  %124 = trunc i64 %123 to i32
  %125 = load ptr, ptr %9, align 8, !tbaa !12
  %126 = getelementptr inbounds nuw %struct.FFIIRFilterCoeffs, ptr %125, i32 0, i32 2
  %127 = load ptr, ptr %126, align 8, !tbaa !14
  %128 = getelementptr inbounds i32, ptr %127, i64 1
  store i32 %124, ptr %128, align 4, !tbaa !8
  store i32 0, ptr %7, align 4
  store i32 1, ptr %19, align 4
  br label %129

129:                                              ; preds = %83, %30, %25
  call void @llvm.lifetime.end.p0(i64 8, ptr %18) #5
  call void @llvm.lifetime.end.p0(i64 8, ptr %17) #5
  call void @llvm.lifetime.end.p0(i64 8, ptr %16) #5
  call void @llvm.lifetime.end.p0(i64 8, ptr %15) #5
  call void @llvm.lifetime.end.p0(i64 8, ptr %14) #5
  %130 = load i32, ptr %7, align 4
  ret i32 %130
}