; Function Attrs: cold nounwind optsize uwtable
define internal fastcc range(i32 -1, 1) i32 @biquad_init_coeffs(ptr noundef %0, ptr noundef captures(none) %1, i32 noundef %2, i32 noundef range(i32 1, 31) %3, float noundef %4) unnamed_addr #0 {
  %or.cond = icmp ugt i32 %2, 1
  br i1 %or.cond, label %6, label %7

6:                                                ; preds = %5
  tail call void (ptr, i32, ptr, ...) @av_log(ptr noundef %0, i32 noundef 16, ptr noundef nonnull @.str.3) #9
  br label %43

7:                                                ; preds = %5
  %.not = icmp eq i32 %3, 2
  br i1 %.not, label %9, label %8

8:                                                ; preds = %7
  tail call void (ptr, i32, ptr, ...) @av_log(ptr noundef %0, i32 noundef 16, ptr noundef nonnull @.str.4) #9
  br label %43

9:                                                ; preds = %7
  %10 = fpext nsz float %4 to double
  %11 = fmul nsz double %10, 0x400921FB54442D18
  %12 = tail call nsz double @llvm.cos.f64(double %11)
  %13 = tail call nsz double @llvm.sin.f64(double %11)
  %14 = fmul nsz double %13, 5.000000e-01
  %15 = fadd nsz double %14, 1.000000e+00
  %16 = icmp eq i32 %2, 1
  %17 = fadd nsz double %12, 1.000000e+00
  %18 = fneg nsz double %17
  %19 = fsub nsz double 1.000000e+00, %12
  %.pn38.in = select i1 %16, double %17, double %19
  %.pn = select i1 %16, double %18, double %19
  %.pn38 = fmul nsz double %.pn38.in, 5.000000e-01
  %.036 = fdiv nsz double %.pn38, %15
  %.sink = fptrunc double %.036 to float
  %20 = getelementptr inbounds nuw i8, ptr %1, i64 4
  store float %.sink, ptr %20, align 4, !tbaa !24
  %.0 = fdiv nsz double %.pn, %15
  %21 = fadd nsz double %14, -1.000000e+00
  %22 = fdiv nsz double %21, %15
  %23 = fptrunc nsz double %22 to float
  %24 = getelementptr inbounds nuw i8, ptr %1, i64 16
  %25 = load ptr, ptr %24, align 8, !tbaa !15
  store float %23, ptr %25, align 4, !tbaa !25
  %26 = fmul nsz double %12, 2.000000e+00
  %27 = fdiv nsz double %26, %15
  %28 = fptrunc nsz double %27 to float
  %29 = getelementptr inbounds nuw i8, ptr %25, i64 4
  store float %28, ptr %29, align 4, !tbaa !25
  %30 = load float, ptr %20, align 4, !tbaa !24
  %31 = fpext nsz float %30 to double
  %32 = fdiv nsz double %.036, %31
  %33 = fptrunc nsz double %32 to float
  %34 = tail call i64 @llvm.lrint.i64.f32(float %33)
  %35 = trunc i64 %34 to i32
  %36 = getelementptr inbounds nuw i8, ptr %1, i64 8
  %37 = load ptr, ptr %36, align 8, !tbaa !9
  store i32 %35, ptr %37, align 4, !tbaa !17
  %38 = fdiv nsz double %.0, %31
  %39 = fptrunc nsz double %38 to float
  %40 = tail call i64 @llvm.lrint.i64.f32(float %39)
  %41 = trunc i64 %40 to i32
  %42 = getelementptr inbounds nuw i8, ptr %37, i64 4
  store i32 %41, ptr %42, align 4, !tbaa !17
  br label %43

43:                                               ; preds = %9, %8, %6
  %.037 = phi i32 [ -1, %6 ], [ -1, %8 ], [ 0, %9 ]
  ret i32 %.037
}